; ModuleID = '40/2827.c'
source_filename = "40/2827.c"
target datalayout = "e-m:e-p270:32:32-p271:32:32-p272:64:64-i64:64-f80:128-n8:16:32:64-S128"
target triple = "x86_64-pc-linux-gnu"

@.str = private unnamed_addr constant [20 x i8] c"%lf %lf %lf %lf %lf\00", align 1
@.str.1 = private unnamed_addr constant [14 x i8] c"Invalid input\00", align 1
@.str.2 = private unnamed_addr constant [6 x i8] c"%.4lf\00", align 1

; Function Attrs: noinline nounwind uwtable
define dso_local i32 @main() #0 {
  %1 = alloca i32, align 4
  %2 = alloca double, align 8
  %3 = alloca double, align 8
  %4 = alloca double, align 8
  %5 = alloca double, align 8
  %6 = alloca double, align 8
  %7 = alloca double, align 8
  store i32 0, i32* %1, align 4
  %8 = call i32 (i8*, ...) @__isoc99_scanf(i8* getelementptr inbounds ([20 x i8], [20 x i8]* @.str, i64 0, i64 0), double* %2, double* %3, double* %4, double* %5, double* %6)
  %9 = load double, double* %2, align 8
  %10 = load double, double* %3, align 8
  %11 = load double, double* %4, align 8
  %12 = load double, double* %5, align 8
  %13 = load double, double* %6, align 8
  %14 = fmul double 1.000000e+02, %13
  %15 = fdiv double %14, 3.600000e+02
  %16 = call double @area(double %9, double %10, double %11, double %12, double %15)
  store double %16, double* %7, align 8
  %17 = load double, double* %7, align 8
  %18 = fcmp oeq double %17, 0.000000e+00
  br i1 %18, label %19, label %21

19:                                               ; preds = %0
  %20 = call i32 (i8*, ...) @printf(i8* getelementptr inbounds ([14 x i8], [14 x i8]* @.str.1, i64 0, i64 0))
  br label %24

21:                                               ; preds = %0
  %22 = load double, double* %7, align 8
  %23 = call i32 (i8*, ...) @printf(i8* getelementptr inbounds ([6 x i8], [6 x i8]* @.str.2, i64 0, i64 0), double %22)
  br label %24

24:                                               ; preds = %21, %19
  ret i32 0
}

declare dso_local i32 @__isoc99_scanf(i8*, ...) #1

; Function Attrs: noinline nounwind uwtable
define dso_local double @area(double %0, double %1, double %2, double %3, double %4) #0 {
  %6 = alloca double, align 8
  %7 = alloca double, align 8
  %8 = alloca double, align 8
  %9 = alloca double, align 8
  %10 = alloca double, align 8
  %11 = alloca double, align 8
  %12 = alloca double, align 8
  store double %0, double* %7, align 8
  store double %1, double* %8, align 8
  store double %2, double* %9, align 8
  store double %3, double* %10, align 8
  store double %4, double* %11, align 8
  %13 = load double, double* %7, align 8
  %14 = load double, double* %8, align 8
  %15 = fadd double %13, %14
  %16 = load double, double* %9, align 8
  %17 = fadd double %15, %16
  %18 = load double, double* %10, align 8
  %19 = fadd double %17, %18
  %20 = fdiv double %19, 2.000000e+00
  store double %20, double* %12, align 8
  %21 = load double, double* %12, align 8
  %22 = load double, double* %7, align 8
  %23 = fsub double %21, %22
  %24 = load double, double* %12, align 8
  %25 = load double, double* %8, align 8
  %26 = fsub double %24, %25
  %27 = fmul double %23, %26
  %28 = load double, double* %12, align 8
  %29 = load double, double* %9, align 8
  %30 = fsub double %28, %29
  %31 = fmul double %27, %30
  %32 = load double, double* %12, align 8
  %33 = load double, double* %10, align 8
  %34 = fsub double %32, %33
  %35 = fmul double %31, %34
  %36 = load double, double* %7, align 8
  %37 = load double, double* %8, align 8
  %38 = fmul double %36, %37
  %39 = load double, double* %9, align 8
  %40 = fmul double %38, %39
  %41 = load double, double* %10, align 8
  %42 = fmul double %40, %41
  %43 = load double, double* %11, align 8
  %44 = call double @cos(double %43) #3
  %45 = fmul double %42, %44
  %46 = load double, double* %11, align 8
  %47 = call double @cos(double %46) #3
  %48 = fmul double %45, %47
  %49 = fsub double %35, %48
  %50 = fcmp olt double %49, 0.000000e+00
  br i1 %50, label %51, label %52

51:                                               ; preds = %5
  store double 0.000000e+00, double* %6, align 8
  br label %83

52:                                               ; preds = %5
  %53 = load double, double* %12, align 8
  %54 = load double, double* %7, align 8
  %55 = fsub double %53, %54
  %56 = load double, double* %12, align 8
  %57 = load double, double* %8, align 8
  %58 = fsub double %56, %57
  %59 = fmul double %55, %58
  %60 = load double, double* %12, align 8
  %61 = load double, double* %9, align 8
  %62 = fsub double %60, %61
  %63 = fmul double %59, %62
  %64 = load double, double* %12, align 8
  %65 = load double, double* %10, align 8
  %66 = fsub double %64, %65
  %67 = fmul double %63, %66
  %68 = load double, double* %7, align 8
  %69 = load double, double* %8, align 8
  %70 = fmul double %68, %69
  %71 = load double, double* %9, align 8
  %72 = fmul double %70, %71
  %73 = load double, double* %10, align 8
  %74 = fmul double %72, %73
  %75 = load double, double* %11, align 8
  %76 = call double @cos(double %75) #3
  %77 = fmul double %74, %76
  %78 = load double, double* %11, align 8
  %79 = call double @cos(double %78) #3
  %80 = fmul double %77, %79
  %81 = fsub double %67, %80
  %82 = call double @sqrt(double %81) #3
  store double %82, double* %6, align 8
  br label %83

83:                                               ; preds = %52, %51
  %84 = load double, double* %6, align 8
  ret double %84
}

declare dso_local i32 @printf(i8*, ...) #1

; Function Attrs: nounwind
declare dso_local double @cos(double) #2

; Function Attrs: nounwind
declare dso_local double @sqrt(double) #2


!llvm.module.flags = !{!0}
!llvm.ident = !{!1}

!0 = !{i32 1, !"wchar_size", i32 4}
!1 = !{!"clang version 10.0.0-4ubuntu1 "}
